target datalayout = "e-m:e-p270:32:32-p271:32:32-p272:64:64-i64:64-i128:128-f80:128-n8:16:32:64-S128"
target triple = "x86_64-pc-linux-gnu"

%struct.crypto_ex_data_st = type { ptr }
%struct.ssl_st = type { i32, i16, i16, ptr, ptr, ptr, ptr, ptr, i32, i32, ptr, ptr, i32, i32, ptr, ptr, ptr, ptr, ptr, ptr, ptr, ptr, i32, i32, [32 x i8], ptr, ptr, ptr, ptr, ptr, ptr, ptr, i64, %struct.crypto_ex_data_st, ptr, i32, i32, i32, i32, i16, ptr, i32, i64, ptr, ptr, ptr, ptr, ptr, ptr, i32, i32, ptr, ptr, i8, i8, i32 }

; Function Attrs: nounwind uwtable
define hidden void @SSL_set_verify(ptr noundef %0, i32 noundef %1, ptr noundef %2) #0 {
  %4 = alloca ptr, align 8
  %5 = alloca i32, align 4
  %6 = alloca ptr, align 8
  store ptr %0, ptr %4, align 8, !tbaa !80
  store i32 %1, ptr %5, align 4, !tbaa !61
  store ptr %2, ptr %6, align 8, !tbaa !147
  %7 = load i32, ptr %5, align 4, !tbaa !61
  %8 = trunc i32 %7 to i8
  %9 = load ptr, ptr %4, align 8, !tbaa !80
  %10 = getelementptr inbounds nuw %struct.ssl_st, ptr %9, i32 0, i32 53
  store i8 %8, ptr %10, align 8, !tbaa !101
  %11 = load ptr, ptr %6, align 8, !tbaa !147
  %12 = icmp ne ptr %11, null
  br i1 %12, label %13, label %17

13:                                               ; preds = %3
  %14 = load ptr, ptr %6, align 8, !tbaa !147
  %15 = load ptr, ptr %4, align 8, !tbaa !80
  %16 = getelementptr inbounds nuw %struct.ssl_st, ptr %15, i32 0, i32 26
  store ptr %14, ptr %16, align 8, !tbaa !105
  br label %17

17:                                               ; preds = %13, %3
  ret void
}