; Function Attrs: mustprogress nofree norecurse nosync nounwind willreturn memory(argmem: write) uwtable
define hidden void @SSL_set_verify(ptr noundef writeonly captures(none) initializes((384, 385)) %0, i32 noundef %1, ptr noundef %2) local_unnamed_addr #6 {
  %4 = trunc i32 %1 to i8
  %5 = getelementptr inbounds nuw i8, ptr %0, i64 384
  store i8 %4, ptr %5, align 8, !tbaa !90
  %.not = icmp eq ptr %2, null
  br i1 %.not, label %8, label %6

6:                                                ; preds = %3
  %7 = getelementptr inbounds nuw i8, ptr %0, i64 192
  store ptr %2, ptr %7, align 8, !tbaa !94
  br label %8

8:                                                ; preds = %6, %3
  ret void
}